; Function Attrs: nounwind uwtable
define ptr @l_Lean_throwError___at_Lean_Elab_OpenDecl_resolveId___spec__7___rarg(ptr noundef %0, ptr noundef %1, ptr noundef %2, ptr noundef %3, ptr noundef %4, ptr readnone captures(none) %5) local_unnamed_addr #0 {
  %7 = getelementptr inbounds nuw i8, ptr %2, i64 8
  %8 = load ptr, ptr %7, align 8, !tbaa !4
  %9 = ptrtoint ptr %8 to i64
  %10 = and i64 %9, 1
  %.not = icmp eq i64 %10, 0
  br i1 %.not, label %11, label %lean_inc.exit21

11:                                               ; preds = %6
  %.val.i = load i32, ptr %8, align 4, !tbaa !8
  %12 = icmp sgt i32 %.val.i, 0
  br i1 %12, label %13, label %15, !prof !11

13:                                               ; preds = %11
  %14 = add nuw i32 %.val.i, 1
  store i32 %14, ptr %8, align 4, !tbaa !8
  br label %lean_inc.exit21

15:                                               ; preds = %11
  %.not.i22 = icmp eq i32 %.val.i, 0
  br i1 %.not.i22, label %lean_inc.exit21, label %16

16:                                               ; preds = %15
  tail call void @lean_inc_ref_cold(ptr noundef nonnull %8) #6
  br label %lean_inc.exit21

lean_inc.exit21:                                  ; preds = %16, %15, %13, %6
  %17 = ptrtoint ptr %2 to i64
  %18 = and i64 %17, 1
  %.not34 = icmp eq i64 %18, 0
  br i1 %.not34, label %19, label %lean_dec.exit

19:                                               ; preds = %lean_inc.exit21
  %20 = load i32, ptr %2, align 4, !tbaa !8
  %21 = icmp sgt i32 %20, 1
  br i1 %21, label %22, label %24, !prof !11

22:                                               ; preds = %19
  %23 = add nsw i32 %20, -1
  store i32 %23, ptr %2, align 4, !tbaa !8
  br label %lean_dec.exit

24:                                               ; preds = %19
  %.not.i = icmp eq i32 %20, 0
  br i1 %.not.i, label %lean_dec.exit, label %25

25:                                               ; preds = %24
  tail call void @lean_dec_ref_cold(ptr noundef nonnull %2) #6
  br label %lean_dec.exit

lean_dec.exit:                                    ; preds = %25, %24, %22, %lean_inc.exit21
  %26 = getelementptr inbounds nuw i8, ptr %0, i64 16
  %27 = load ptr, ptr %26, align 8, !tbaa !4
  %28 = ptrtoint ptr %27 to i64
  %29 = and i64 %28, 1
  %.not35 = icmp eq i64 %29, 0
  br i1 %.not35, label %30, label %lean_inc.exit

30:                                               ; preds = %lean_dec.exit
  %.val.i23 = load i32, ptr %27, align 4, !tbaa !8
  %31 = icmp sgt i32 %.val.i23, 0
  br i1 %31, label %32, label %34, !prof !11

32:                                               ; preds = %30
  %33 = add nuw i32 %.val.i23, 1
  store i32 %33, ptr %27, align 4, !tbaa !8
  br label %36

34:                                               ; preds = %30
  %.not.i24 = icmp eq i32 %.val.i23, 0
  br i1 %.not.i24, label %lean_inc.exit, label %35

35:                                               ; preds = %34
  tail call void @lean_inc_ref_cold(ptr noundef nonnull %27) #6
  %.val.i26.pr = load i32, ptr %27, align 4, !tbaa !8
  br label %36

36:                                               ; preds = %35, %32
  %.val.i26 = phi i32 [ %.val.i26.pr, %35 ], [ %33, %32 ]
  %37 = icmp sgt i32 %.val.i26, 0
  br i1 %37, label %38, label %40, !prof !14

38:                                               ; preds = %36
  %39 = add nuw i32 %.val.i26, 1
  store i32 %39, ptr %27, align 4, !tbaa !8
  br label %lean_inc.exit

40:                                               ; preds = %36
  %.not.i27 = icmp eq i32 %.val.i26, 0
  br i1 %.not.i27, label %lean_inc.exit, label %41

41:                                               ; preds = %40
  tail call void @lean_inc_ref_cold(ptr noundef nonnull %27) #6
  br label %lean_inc.exit

lean_inc.exit:                                    ; preds = %34, %41, %40, %38, %lean_dec.exit
  tail call void @lean_inc_heartbeat() #6
  %42 = tail call noalias ptr @mi_malloc_small(i64 noundef 64) #6
  %43 = icmp eq ptr %42, null
  br i1 %43, label %44, label %lean_alloc_closure.exit

44:                                               ; preds = %lean_inc.exit
  tail call void @lean_internal_panic_out_of_memory() #7
  unreachable

lean_alloc_closure.exit:                          ; preds = %lean_inc.exit
  %45 = getelementptr inbounds nuw i8, ptr %42, i64 4
  store i32 1, ptr %42, align 4, !tbaa !8
  store i32 -184549312, ptr %45, align 4
  %46 = getelementptr inbounds nuw i8, ptr %42, i64 8
  store ptr @l_Lean_throwError___at_Lean_Elab_OpenDecl_resolveId___spec__7___rarg___lambda__3, ptr %46, align 8, !tbaa !4
  %47 = getelementptr inbounds nuw i8, ptr %42, i64 16
  store i16 6, ptr %47, align 8, !tbaa !12
  %48 = getelementptr inbounds nuw i8, ptr %42, i64 18
  store i16 5, ptr %48, align 2, !tbaa !12
  %49 = getelementptr inbounds nuw i8, ptr %42, i64 24
  store ptr %3, ptr %49, align 8, !tbaa !4
  %50 = getelementptr inbounds nuw i8, ptr %42, i64 32
  store ptr %4, ptr %50, align 8, !tbaa !4
  %51 = getelementptr inbounds nuw i8, ptr %42, i64 40
  store ptr %0, ptr %51, align 8, !tbaa !4
  %52 = getelementptr inbounds nuw i8, ptr %42, i64 48
  store ptr %27, ptr %52, align 8, !tbaa !4
  %53 = getelementptr inbounds nuw i8, ptr %42, i64 56
  store ptr %1, ptr %53, align 8, !tbaa !4
  %54 = tail call ptr @lean_apply_4(ptr noundef %27, ptr noundef nonnull inttoptr (i64 1 to ptr), ptr noundef nonnull inttoptr (i64 1 to ptr), ptr noundef %8, ptr noundef nonnull %42) #6
  ret ptr %54
}